target datalayout = "e-m:e-p270:32:32-p271:32:32-p272:64:64-i64:64-i128:128-f80:128-n8:16:32:64-S128"
target triple = "x86_64-pc-linux-gnu"

%struct.SDL_HIDAPI_DeviceDriver = type { ptr, i8, ptr, ptr, ptr, ptr, ptr, ptr, ptr, ptr, ptr, ptr, ptr, ptr, ptr, ptr, ptr, ptr, ptr }
%struct.SDL_AtomicInt = type { i32 }
%struct.SDL_HIDAPI_Device = type { ptr, ptr, ptr, ptr, i16, i16, i16, ptr, %struct.SDL_GUID, i32, i32, i32, i32, i16, i16, i8, i32, i32, i32, ptr, ptr, ptr, ptr, %struct.SDL_AtomicInt, i32, ptr, i8, i8, i8, ptr, i32, ptr, ptr }
%struct.SDL_GUID = type { [16 x i8] }
%struct.SDL_Joystick = type { i32, ptr, ptr, ptr, %struct.SDL_GUID, i16, i64, i8, i8, i32, ptr, i32, ptr, i32, ptr, i32, ptr, i32, ptr, i32, i32, ptr, i16, i16, i64, i64, i16, i16, i64, i64, i8, i8, i8, i64, i8, i32, i32, i32, i8, i32, ptr, i32, ptr, [3 x [3 x float]], i64, ptr, ptr, i32, i32, ptr }
%struct.joystick_hwdata = type { ptr }

; Function Attrs: nounwind uwtable
define internal void @HIDAPI_JoystickClose(ptr noundef %0) #0 {
  %2 = alloca ptr, align 8
  %3 = alloca ptr, align 8
  %4 = alloca i32, align 4
  store ptr %0, ptr %2, align 8
  call void @SDL_AssertJoysticksLocked()
  %5 = load ptr, ptr %2, align 8
  %6 = getelementptr inbounds nuw %struct.SDL_Joystick, ptr %5, i32 0, i32 46
  %7 = load ptr, ptr %6, align 8
  %8 = icmp ne ptr %7, null
  br i1 %8, label %9, label %59

9:                                                ; preds = %1
  call void @llvm.lifetime.start.p0(i64 8, ptr %3) #7
  %10 = load ptr, ptr %2, align 8
  %11 = getelementptr inbounds nuw %struct.SDL_Joystick, ptr %10, i32 0, i32 46
  %12 = load ptr, ptr %11, align 8
  %13 = getelementptr inbounds nuw %struct.joystick_hwdata, ptr %12, i32 0, i32 0
  %14 = load ptr, ptr %13, align 8
  store ptr %14, ptr %3, align 8
  call void @llvm.lifetime.start.p0(i64 4, ptr %4) #7
  %15 = load ptr, ptr %3, align 8
  %16 = getelementptr inbounds nuw %struct.SDL_HIDAPI_Device, ptr %15, i32 0, i32 27
  %17 = load i8, ptr %16, align 1, !range !6, !noundef !7
  %18 = trunc i8 %17 to i1
  br i1 %18, label %19, label %23

19:                                               ; preds = %9
  %20 = load ptr, ptr %3, align 8
  %21 = getelementptr inbounds nuw %struct.SDL_HIDAPI_Device, ptr %20, i32 0, i32 21
  %22 = load ptr, ptr %21, align 8
  call void @SDL_UnlockMutex_REAL(ptr noundef %22)
  br label %23

23:                                               ; preds = %19, %9
  store i32 0, ptr %4, align 4
  br label %24

24:                                               ; preds = %34, %23
  %25 = load i32, ptr %4, align 4
  %26 = icmp slt i32 %25, 3
  br i1 %26, label %27, label %37

27:                                               ; preds = %24
  %28 = load ptr, ptr %3, align 8
  %29 = getelementptr inbounds nuw %struct.SDL_HIDAPI_Device, ptr %28, i32 0, i32 23
  %30 = call i32 @SDL_GetAtomicInt_REAL(ptr noundef %29)
  %31 = icmp sgt i32 %30, 0
  br i1 %31, label %32, label %33

32:                                               ; preds = %27
  call void @SDL_Delay_REAL(i32 noundef 10)
  br label %33

33:                                               ; preds = %32, %27
  br label %34

34:                                               ; preds = %33
  %35 = load i32, ptr %4, align 4
  %36 = add nsw i32 %35, 1
  store i32 %36, ptr %4, align 4
  br label %24, !llvm.loop !16

37:                                               ; preds = %24
  %38 = load ptr, ptr %3, align 8
  %39 = getelementptr inbounds nuw %struct.SDL_HIDAPI_Device, ptr %38, i32 0, i32 27
  %40 = load i8, ptr %39, align 1, !range !6, !noundef !7
  %41 = trunc i8 %40 to i1
  br i1 %41, label %42, label %46

42:                                               ; preds = %37
  %43 = load ptr, ptr %3, align 8
  %44 = getelementptr inbounds nuw %struct.SDL_HIDAPI_Device, ptr %43, i32 0, i32 21
  %45 = load ptr, ptr %44, align 8
  call void @SDL_LockMutex_REAL(ptr noundef %45)
  br label %46

46:                                               ; preds = %42, %37
  %47 = load ptr, ptr %3, align 8
  %48 = getelementptr inbounds nuw %struct.SDL_HIDAPI_Device, ptr %47, i32 0, i32 19
  %49 = load ptr, ptr %48, align 8
  %50 = getelementptr inbounds nuw %struct.SDL_HIDAPI_DeviceDriver, ptr %49, i32 0, i32 17
  %51 = load ptr, ptr %50, align 8
  %52 = load ptr, ptr %3, align 8
  %53 = load ptr, ptr %2, align 8
  call void %51(ptr noundef %52, ptr noundef %53)
  %54 = load ptr, ptr %2, align 8
  %55 = getelementptr inbounds nuw %struct.SDL_Joystick, ptr %54, i32 0, i32 46
  %56 = load ptr, ptr %55, align 8
  call void @SDL_free_REAL(ptr noundef %56)
  %57 = load ptr, ptr %2, align 8
  %58 = getelementptr inbounds nuw %struct.SDL_Joystick, ptr %57, i32 0, i32 46
  store ptr null, ptr %58, align 8
  call void @llvm.lifetime.end.p0(i64 4, ptr %4) #7
  call void @llvm.lifetime.end.p0(i64 8, ptr %3) #7
  br label %59

59:                                               ; preds = %46, %1
  ret void
}