; Function Attrs: nounwind uwtable
define internal void @HIDAPI_JoystickClose(ptr noundef %0) #0 {
  tail call void @SDL_AssertJoysticksLocked() #9
  %2 = getelementptr inbounds nuw i8, ptr %0, i64 328
  %3 = load ptr, ptr %2, align 8
  %.not = icmp eq ptr %3, null
  br i1 %.not, label %32, label %4

4:                                                ; preds = %1
  %5 = load ptr, ptr %3, align 8
  %6 = getelementptr inbounds nuw i8, ptr %5, i64 153
  %7 = load i8, ptr %6, align 1, !range !6, !noundef !7
  %8 = trunc nuw i8 %7 to i1
  br i1 %8, label %9, label %12

9:                                                ; preds = %4
  %10 = getelementptr inbounds nuw i8, ptr %5, i64 120
  %11 = load ptr, ptr %10, align 8
  tail call void @SDL_UnlockMutex_REAL(ptr noundef %11) #9
  br label %12

12:                                               ; preds = %9, %4
  %13 = getelementptr inbounds nuw i8, ptr %5, i64 136
  br label %14

14:                                               ; preds = %12, %18
  %.014 = phi i32 [ 0, %12 ], [ %19, %18 ]
  %15 = tail call i32 @SDL_GetAtomicInt_REAL(ptr noundef nonnull %13) #9
  %16 = icmp sgt i32 %15, 0
  br i1 %16, label %17, label %18

17:                                               ; preds = %14
  tail call void @SDL_Delay_REAL(i32 noundef 10) #9
  br label %18

18:                                               ; preds = %14, %17
  %19 = add nuw nsw i32 %.014, 1
  %exitcond.not = icmp eq i32 %19, 3
  br i1 %exitcond.not, label %20, label %14, !llvm.loop !17

20:                                               ; preds = %18
  %21 = load i8, ptr %6, align 1, !range !6, !noundef !7
  %22 = trunc nuw i8 %21 to i1
  br i1 %22, label %23, label %26

23:                                               ; preds = %20
  %24 = getelementptr inbounds nuw i8, ptr %5, i64 120
  %25 = load ptr, ptr %24, align 8
  tail call void @SDL_LockMutex_REAL(ptr noundef %25) #9
  br label %26

26:                                               ; preds = %23, %20
  %27 = getelementptr inbounds nuw i8, ptr %5, i64 104
  %28 = load ptr, ptr %27, align 8
  %29 = getelementptr inbounds nuw i8, ptr %28, i64 136
  %30 = load ptr, ptr %29, align 8
  tail call void %30(ptr noundef nonnull %5, ptr noundef %0) #9
  %31 = load ptr, ptr %2, align 8
  tail call void @SDL_free_REAL(ptr noundef %31) #9
  store ptr null, ptr %2, align 8
  br label %32

32:                                               ; preds = %26, %1
  ret void
}